target datalayout = "e-m:e-p270:32:32-p271:32:32-p272:64:64-i64:64-i128:128-f80:128-n8:16:32:64-S128"
target triple = "x86_64-pc-linux-gnu"

@.str.176 = private unnamed_addr constant [14 x i8] c"/proc/meminfo\00", align 1
@__const._ZN5cmsys31SystemInformationImplementation17GetHostMemoryUsedEv.names2 = private unnamed_addr constant [3 x ptr] [ptr @.str.177, ptr @.str.178, ptr null], align 16
@__const._ZN5cmsys31SystemInformationImplementation17GetHostMemoryUsedEv.names4 = private unnamed_addr constant [5 x ptr] [ptr @.str.177, ptr @.str.179, ptr @.str.180, ptr @.str.181, ptr null], align 16

; Function Attrs: mustprogress uwtable
define dso_local noundef i64 @_ZN5cmsys31SystemInformationImplementation17GetHostMemoryUsedEv(ptr noundef nonnull align 8 dereferenceable(457) %0) #4 align 2 {
  %2 = alloca i64, align 8
  %3 = alloca ptr, align 8
  %4 = alloca [3 x ptr], align 16
  %5 = alloca [2 x i64], align 16
  %6 = alloca i32, align 4
  %7 = alloca [5 x ptr], align 16
  %8 = alloca [4 x i64], align 16
  %9 = alloca i32, align 4
  %10 = alloca ptr, align 8
  %11 = alloca ptr, align 8
  %12 = alloca ptr, align 8
  %13 = alloca ptr, align 8
  %14 = alloca ptr, align 8
  %15 = alloca ptr, align 8
  store ptr %0, ptr %3, align 8, !tbaa !12
  call void @llvm.lifetime.start.p0(i64 24, ptr %4) #3
  call void @llvm.memcpy.p0.p0.i64(ptr align 16 %4, ptr align 16 @__const._ZN5cmsys31SystemInformationImplementation17GetHostMemoryUsedEv.names2, i64 24, i1 false)
  call void @llvm.lifetime.start.p0(i64 16, ptr %5) #3
  call void @llvm.memset.p0.i64(ptr align 16 %5, i8 0, i64 16, i1 false)
  call void @llvm.lifetime.start.p0(i64 4, ptr %6) #3
  %16 = getelementptr inbounds [3 x ptr], ptr %4, i64 0, i64 0
  %17 = getelementptr inbounds [2 x i64], ptr %5, i64 0, i64 0
  %18 = call noundef i32 @_ZN5cmsys12_GLOBAL__N_117GetFieldsFromFileIxEEiPKcPS3_PT_(ptr noundef @.str.176, ptr noundef %16, ptr noundef %17)
  store i32 %18, ptr %6, align 4, !tbaa !70
  %19 = load i32, ptr %6, align 4, !tbaa !70
  %20 = icmp ne i32 %19, 0
  br i1 %20, label %21, label %47

21:                                               ; preds = %1
  call void @llvm.lifetime.start.p0(i64 40, ptr %7) #3
  call void @llvm.memcpy.p0.p0.i64(ptr align 16 %7, ptr align 16 @__const._ZN5cmsys31SystemInformationImplementation17GetHostMemoryUsedEv.names4, i64 40, i1 false)
  call void @llvm.lifetime.start.p0(i64 32, ptr %8) #3
  call void @llvm.memset.p0.i64(ptr align 16 %8, i8 0, i64 32, i1 false)
  %22 = getelementptr inbounds [5 x ptr], ptr %7, i64 0, i64 0
  %23 = getelementptr inbounds [4 x i64], ptr %8, i64 0, i64 0
  %24 = call noundef i32 @_ZN5cmsys12_GLOBAL__N_117GetFieldsFromFileIxEEiPKcPS3_PT_(ptr noundef @.str.176, ptr noundef %22, ptr noundef %23)
  store i32 %24, ptr %6, align 4, !tbaa !70
  %25 = load i32, ptr %6, align 4, !tbaa !70
  %26 = icmp ne i32 %25, 0
  br i1 %26, label %27, label %30

27:                                               ; preds = %21
  %28 = load i32, ptr %6, align 4, !tbaa !70
  %29 = sext i32 %28 to i64
  store i64 %29, ptr %2, align 8
  store i32 1, ptr %9, align 4
  br label %46

30:                                               ; preds = %21
  call void @llvm.lifetime.start.p0(i64 8, ptr %10) #3
  %31 = getelementptr inbounds [4 x i64], ptr %8, i64 0, i64 0
  store ptr %31, ptr %10, align 8, !tbaa !94
  call void @llvm.lifetime.start.p0(i64 8, ptr %11) #3
  %32 = getelementptr inbounds [4 x i64], ptr %8, i64 0, i64 1
  store ptr %32, ptr %11, align 8, !tbaa !94
  call void @llvm.lifetime.start.p0(i64 8, ptr %12) #3
  %33 = getelementptr inbounds [4 x i64], ptr %8, i64 0, i64 2
  store ptr %33, ptr %12, align 8, !tbaa !94
  call void @llvm.lifetime.start.p0(i64 8, ptr %13) #3
  %34 = getelementptr inbounds [4 x i64], ptr %8, i64 0, i64 3
  store ptr %34, ptr %13, align 8, !tbaa !94
  %35 = load ptr, ptr %10, align 8, !tbaa !94
  %36 = load i64, ptr %35, align 8, !tbaa !92
  %37 = load ptr, ptr %11, align 8, !tbaa !94
  %38 = load i64, ptr %37, align 8, !tbaa !92
  %39 = sub nsw i64 %36, %38
  %40 = load ptr, ptr %12, align 8, !tbaa !94
  %41 = load i64, ptr %40, align 8, !tbaa !92
  %42 = sub nsw i64 %39, %41
  %43 = load ptr, ptr %13, align 8, !tbaa !94
  %44 = load i64, ptr %43, align 8, !tbaa !92
  %45 = sub nsw i64 %42, %44
  store i64 %45, ptr %2, align 8
  store i32 1, ptr %9, align 4
  call void @llvm.lifetime.end.p0(i64 8, ptr %13) #3
  call void @llvm.lifetime.end.p0(i64 8, ptr %12) #3
  call void @llvm.lifetime.end.p0(i64 8, ptr %11) #3
  call void @llvm.lifetime.end.p0(i64 8, ptr %10) #3
  br label %46

46:                                               ; preds = %30, %27
  call void @llvm.lifetime.end.p0(i64 32, ptr %8) #3
  call void @llvm.lifetime.end.p0(i64 40, ptr %7) #3
  br label %55

47:                                               ; preds = %1
  call void @llvm.lifetime.start.p0(i64 8, ptr %14) #3
  %48 = getelementptr inbounds [2 x i64], ptr %5, i64 0, i64 0
  store ptr %48, ptr %14, align 8, !tbaa !94
  call void @llvm.lifetime.start.p0(i64 8, ptr %15) #3
  %49 = getelementptr inbounds [2 x i64], ptr %5, i64 0, i64 1
  store ptr %49, ptr %15, align 8, !tbaa !94
  %50 = load ptr, ptr %14, align 8, !tbaa !94
  %51 = load i64, ptr %50, align 8, !tbaa !92
  %52 = load ptr, ptr %15, align 8, !tbaa !94
  %53 = load i64, ptr %52, align 8, !tbaa !92
  %54 = sub nsw i64 %51, %53
  store i64 %54, ptr %2, align 8
  store i32 1, ptr %9, align 4
  call void @llvm.lifetime.end.p0(i64 8, ptr %15) #3
  call void @llvm.lifetime.end.p0(i64 8, ptr %14) #3
  br label %55

55:                                               ; preds = %47, %46
  call void @llvm.lifetime.end.p0(i64 4, ptr %6) #3
  call void @llvm.lifetime.end.p0(i64 16, ptr %5) #3
  call void @llvm.lifetime.end.p0(i64 24, ptr %4) #3
  %56 = load i64, ptr %2, align 8
  ret i64 %56
}