; Function Attrs: mustprogress uwtable
define dso_local noundef i64 @_ZN5cmsys31SystemInformationImplementation17GetHostMemoryUsedEv(ptr noundef nonnull readnone align 8 captures(none) dereferenceable(457) %0) local_unnamed_addr #3 align 2 {
  %2 = alloca [2 x i64], align 16
  %3 = alloca [4 x i64], align 16
  call void @llvm.lifetime.start.p0(i64 16, ptr nonnull %2) #34
  call void @llvm.memset.p0.i64(ptr noundef nonnull align 16 dereferenceable(16) %2, i8 0, i64 16, i1 false)
  %4 = call fastcc noundef i32 @_ZN5cmsys12_GLOBAL__N_117GetFieldsFromFileIxEEiPKcPS3_PT_(ptr noundef nonnull @.str.176, ptr noundef @__const._ZN5cmsys31SystemInformationImplementation17GetHostMemoryUsedEv.names2, ptr noundef %2)
  %.not = icmp eq i32 %4, 0
  br i1 %.not, label %21, label %5

5:                                                ; preds = %1
  call void @llvm.lifetime.start.p0(i64 32, ptr nonnull %3) #34
  call void @llvm.memset.p0.i64(ptr noundef nonnull align 16 dereferenceable(32) %3, i8 0, i64 32, i1 false)
  %6 = call fastcc noundef i32 @_ZN5cmsys12_GLOBAL__N_117GetFieldsFromFileIxEEiPKcPS3_PT_(ptr noundef nonnull @.str.176, ptr noundef @__const._ZN5cmsys31SystemInformationImplementation17GetHostMemoryUsedEv.names4, ptr noundef %3)
  %.not10 = icmp eq i32 %6, 0
  br i1 %.not10, label %9, label %7

7:                                                ; preds = %5
  %8 = sext i32 %6 to i64
  br label %20

9:                                                ; preds = %5
  %10 = getelementptr inbounds nuw i8, ptr %3, i64 8
  %11 = getelementptr inbounds nuw i8, ptr %3, i64 16
  %12 = getelementptr inbounds nuw i8, ptr %3, i64 24
  %13 = load i64, ptr %3, align 16, !tbaa !141
  %14 = load i64, ptr %10, align 8, !tbaa !141
  %15 = load i64, ptr %11, align 16, !tbaa !141
  %16 = load i64, ptr %12, align 8, !tbaa !141
  %17 = add i64 %14, %15
  %18 = add i64 %17, %16
  %19 = sub i64 %13, %18
  br label %20

20:                                               ; preds = %9, %7
  %.0 = phi i64 [ %8, %7 ], [ %19, %9 ]
  call void @llvm.lifetime.end.p0(i64 32, ptr nonnull %3) #34
  br label %26

21:                                               ; preds = %1
  %22 = getelementptr inbounds nuw i8, ptr %2, i64 8
  %23 = load i64, ptr %2, align 16, !tbaa !141
  %24 = load i64, ptr %22, align 8, !tbaa !141
  %25 = sub nsw i64 %23, %24
  br label %26

26:                                               ; preds = %21, %20
  %.1 = phi i64 [ %.0, %20 ], [ %25, %21 ]
  call void @llvm.lifetime.end.p0(i64 16, ptr nonnull %2) #34
  ret i64 %.1
}